target datalayout = "e-m:e-p270:32:32-p271:32:32-p272:64:64-i64:64-i128:128-f80:128-n8:16:32:64-S128"
target triple = "x86_64-unknown-linux-gnu"

%"struct.OpenImageIO_v2_6_0::TypeDesc" = type { i8, i8, i8, i8, i32 }
%"class.OpenImageIO_v2_6_0::ImageInput::Impl" = type { %"class.std::recursive_mutex", %"class.boost::thread_specific_ptr", i32, ptr, %"class.std::unique_ptr" }
%"class.std::recursive_mutex" = type { %"class.std::__recursive_mutex_base" }
%"class.std::__recursive_mutex_base" = type { %union.pthread_mutex_t }
%union.pthread_mutex_t = type { %struct.__pthread_mutex_s }
%struct.__pthread_mutex_s = type { i32, i32, i32, i32, i32, i16, i16, %struct.__pthread_internal_list }
%struct.__pthread_internal_list = type { ptr, ptr }
%"class.boost::thread_specific_ptr" = type { ptr }
%"class.std::unique_ptr" = type { %"struct.std::__uniq_ptr_data" }
%"struct.std::__uniq_ptr_data" = type { %"class.std::__uniq_ptr_impl" }
%"class.std::__uniq_ptr_impl" = type { %"class.std::tuple" }
%"class.std::tuple" = type { %"struct.std::_Tuple_impl" }
%"struct.std::_Tuple_impl" = type { %"struct.std::_Head_base.1" }
%"struct.std::_Head_base.1" = type { ptr }
%"class.OpenImageIO_v2_6_0::ImageInput" = type { ptr, %"class.OpenImageIO_v2_6_0::ImageSpec", %"class.std::unique_ptr.12" }
%"class.OpenImageIO_v2_6_0::ImageSpec" = type { i32, i32, i32, i32, i32, i32, i32, i32, i32, i32, i32, i32, i32, i32, i32, i32, %"struct.OpenImageIO_v2_6_0::TypeDesc", %"class.std::vector", %"class.std::vector.2", i32, i32, i8, %"class.OpenImageIO_v2_6_0::ParamValueList" }
%"class.std::vector" = type { %"struct.std::_Vector_base" }
%"struct.std::_Vector_base" = type { %"struct.std::_Vector_base<OpenImageIO_v2_6_0::TypeDesc, std::allocator<OpenImageIO_v2_6_0::TypeDesc>>::_Vector_impl" }
%"struct.std::_Vector_base<OpenImageIO_v2_6_0::TypeDesc, std::allocator<OpenImageIO_v2_6_0::TypeDesc>>::_Vector_impl" = type { %"struct.std::_Vector_base<OpenImageIO_v2_6_0::TypeDesc, std::allocator<OpenImageIO_v2_6_0::TypeDesc>>::_Vector_impl_data" }
%"struct.std::_Vector_base<OpenImageIO_v2_6_0::TypeDesc, std::allocator<OpenImageIO_v2_6_0::TypeDesc>>::_Vector_impl_data" = type { ptr, ptr, ptr }
%"class.std::vector.2" = type { %"struct.std::_Vector_base.3" }
%"struct.std::_Vector_base.3" = type { %"struct.std::_Vector_base<std::__cxx11::basic_string<char>, std::allocator<std::__cxx11::basic_string<char>>>::_Vector_impl" }
%"struct.std::_Vector_base<std::__cxx11::basic_string<char>, std::allocator<std::__cxx11::basic_string<char>>>::_Vector_impl" = type { %"struct.std::_Vector_base<std::__cxx11::basic_string<char>, std::allocator<std::__cxx11::basic_string<char>>>::_Vector_impl_data" }
%"struct.std::_Vector_base<std::__cxx11::basic_string<char>, std::allocator<std::__cxx11::basic_string<char>>>::_Vector_impl_data" = type { ptr, ptr, ptr }
%"class.OpenImageIO_v2_6_0::ParamValueList" = type { %"class.std::vector.7" }
%"class.std::vector.7" = type { %"struct.std::_Vector_base.8" }
%"struct.std::_Vector_base.8" = type { %"struct.std::_Vector_base<OpenImageIO_v2_6_0::ParamValue, std::allocator<OpenImageIO_v2_6_0::ParamValue>>::_Vector_impl" }
%"struct.std::_Vector_base<OpenImageIO_v2_6_0::ParamValue, std::allocator<OpenImageIO_v2_6_0::ParamValue>>::_Vector_impl" = type { %"struct.std::_Vector_base<OpenImageIO_v2_6_0::ParamValue, std::allocator<OpenImageIO_v2_6_0::ParamValue>>::_Vector_impl_data" }
%"struct.std::_Vector_base<OpenImageIO_v2_6_0::ParamValue, std::allocator<OpenImageIO_v2_6_0::ParamValue>>::_Vector_impl_data" = type { ptr, ptr, ptr }
%"class.std::unique_ptr.12" = type { %"struct.std::__uniq_ptr_data.13" }
%"struct.std::__uniq_ptr_data.13" = type { %"class.std::__uniq_ptr_impl.14" }
%"class.std::__uniq_ptr_impl.14" = type { %"class.std::tuple.15" }
%"class.std::tuple.15" = type { %"struct.std::_Tuple_impl.16" }
%"struct.std::_Tuple_impl.16" = type { %"struct.std::_Tuple_impl.17", %"struct.std::_Head_base.19" }
%"struct.std::_Tuple_impl.17" = type { %"struct.std::_Head_base.18" }
%"struct.std::_Head_base.18" = type { ptr }
%"struct.std::_Head_base.19" = type { ptr }
%"class.std::__cxx11::basic_string" = type { %"struct.std::__cxx11::basic_string<char>::_Alloc_hider", i64, %union.anon.23 }
%"struct.std::__cxx11::basic_string<char>::_Alloc_hider" = type { ptr }
%union.anon.23 = type { i64, [8 x i8] }

@.str.13 = private unnamed_addr constant [60 x i8] c"Seek error, could not seek from {} to {} (total size {}) {}\00", align 1

; Function Attrs: mustprogress nounwind uwtable
define linkonce_odr noundef nonnull align 8 dereferenceable(8) ptr @_ZNSt10_Head_baseILm0EPN18OpenImageIO_v2_6_010ImageInput4ImplELb0EE7_M_headERKS4_(ptr noundef nonnull align 8 dereferenceable(8) %__b) #4 comdat align 2 {
entry:
  %__b.addr = alloca ptr, align 8
  store ptr %__b, ptr %__b.addr, align 8
  %0 = load ptr, ptr %__b.addr, align 8
  %_M_head_impl = getelementptr inbounds %"struct.std::_Head_base.19", ptr %0, i32 0, i32 0
  ret ptr %_M_head_impl
}

; Function Attrs: mustprogress nounwind uwtable
define linkonce_odr noundef nonnull align 8 dereferenceable(8) ptr @_ZNSt11_Tuple_implILm0EJPN18OpenImageIO_v2_6_010ImageInput4ImplEPFvS3_EEE7_M_headERKS6_(ptr noundef nonnull align 8 dereferenceable(16) %__t) #4 comdat align 2 {
entry:
  %__t.addr = alloca ptr, align 8
  store ptr %__t, ptr %__t.addr, align 8
  %0 = load ptr, ptr %__t.addr, align 8
  %add.ptr = getelementptr inbounds i8, ptr %0, i64 8
  %call = call noundef nonnull align 8 dereferenceable(8) ptr @_ZNSt10_Head_baseILm0EPN18OpenImageIO_v2_6_010ImageInput4ImplELb0EE7_M_headERKS4_(ptr noundef nonnull align 8 dereferenceable(8) %add.ptr) #3
  ret ptr %call
}

; Function Attrs: mustprogress nounwind uwtable
define linkonce_odr noundef nonnull align 8 dereferenceable(8) ptr @_ZSt12__get_helperILm0EPN18OpenImageIO_v2_6_010ImageInput4ImplEJPFvS3_EEERKT0_RKSt11_Tuple_implIXT_EJS6_DpT1_EE(ptr noundef nonnull align 8 dereferenceable(16) %__t) #4 comdat {
entry:
  %__t.addr = alloca ptr, align 8
  store ptr %__t, ptr %__t.addr, align 8
  %0 = load ptr, ptr %__t.addr, align 8
  %call = call noundef nonnull align 8 dereferenceable(8) ptr @_ZNSt11_Tuple_implILm0EJPN18OpenImageIO_v2_6_010ImageInput4ImplEPFvS3_EEE7_M_headERKS6_(ptr noundef nonnull align 8 dereferenceable(16) %0) #3
  ret ptr %call
}

; Function Attrs: mustprogress nounwind uwtable
define linkonce_odr noundef nonnull align 8 dereferenceable(8) ptr @_ZSt3getILm0EJPN18OpenImageIO_v2_6_010ImageInput4ImplEPFvS3_EEERKNSt13tuple_elementIXT_ESt5tupleIJDpT0_EEE4typeERKSA_(ptr noundef nonnull align 8 dereferenceable(16) %__t) #4 comdat {
entry:
  %__t.addr = alloca ptr, align 8
  store ptr %__t, ptr %__t.addr, align 8
  %0 = load ptr, ptr %__t.addr, align 8
  %call = call noundef nonnull align 8 dereferenceable(8) ptr @_ZSt12__get_helperILm0EPN18OpenImageIO_v2_6_010ImageInput4ImplEJPFvS3_EEERKT0_RKSt11_Tuple_implIXT_EJS6_DpT1_EE(ptr noundef nonnull align 8 dereferenceable(16) %0) #3
  ret ptr %call
}

; Function Attrs: mustprogress nounwind uwtable
define linkonce_odr noundef ptr @_ZNKSt15__uniq_ptr_implIN18OpenImageIO_v2_6_010ImageInput4ImplEPFvPS2_EE6_M_ptrEv(ptr noundef nonnull align 8 dereferenceable(16) %this) #4 comdat align 2 {
entry:
  %this.addr = alloca ptr, align 8
  store ptr %this, ptr %this.addr, align 8
  %this1 = load ptr, ptr %this.addr, align 8
  %_M_t = getelementptr inbounds %"class.std::__uniq_ptr_impl.14", ptr %this1, i32 0, i32 0
  %call = call noundef nonnull align 8 dereferenceable(8) ptr @_ZSt3getILm0EJPN18OpenImageIO_v2_6_010ImageInput4ImplEPFvS3_EEERKNSt13tuple_elementIXT_ESt5tupleIJDpT0_EEE4typeERKSA_(ptr noundef nonnull align 8 dereferenceable(16) %_M_t) #3
  %0 = load ptr, ptr %call, align 8
  ret ptr %0
}

; Function Attrs: mustprogress nounwind uwtable
define linkonce_odr noundef ptr @_ZNKSt10unique_ptrIN18OpenImageIO_v2_6_010ImageInput4ImplEPFvPS2_EE3getEv(ptr noundef nonnull align 8 dereferenceable(16) %this) #4 comdat align 2 {
entry:
  %this.addr = alloca ptr, align 8
  store ptr %this, ptr %this.addr, align 8
  %this1 = load ptr, ptr %this.addr, align 8
  %_M_t = getelementptr inbounds %"class.std::unique_ptr.12", ptr %this1, i32 0, i32 0
  %call = call noundef ptr @_ZNKSt15__uniq_ptr_implIN18OpenImageIO_v2_6_010ImageInput4ImplEPFvPS2_EE6_M_ptrEv(ptr noundef nonnull align 8 dereferenceable(16) %_M_t) #3
  ret ptr %call
}

; Function Attrs: mustprogress uwtable
define linkonce_odr noundef zeroext i1 @_ZN18OpenImageIO_v2_6_010Filesystem7IOProxy4seekEli(ptr noundef nonnull align 8 dereferenceable(88) %this, i64 noundef %offset, i32 noundef %origin) #6 comdat align 2 {
entry:
  %this.addr = alloca ptr, align 8
  %offset.addr = alloca i64, align 8
  %origin.addr = alloca i32, align 4
  store ptr %this, ptr %this.addr, align 8
  store i64 %offset, ptr %offset.addr, align 8
  store i32 %origin, ptr %origin.addr, align 4
  %this1 = load ptr, ptr %this.addr, align 8
  %0 = load i32, ptr %origin.addr, align 4
  %cmp = icmp eq i32 %0, 0
  br i1 %cmp, label %cond.true, label %cond.false

cond.true:                                        ; preds = %entry
  %1 = load i64, ptr %offset.addr, align 8
  br label %cond.end

cond.false:                                       ; preds = %entry
  br label %cond.end

cond.end:                                         ; preds = %cond.false, %cond.true
  %cond = phi i64 [ %1, %cond.true ], [ 0, %cond.false ]
  %2 = load i32, ptr %origin.addr, align 4
  %cmp2 = icmp eq i32 %2, 1
  br i1 %cmp2, label %cond.true3, label %cond.false4

cond.true3:                                       ; preds = %cond.end
  %3 = load i64, ptr %offset.addr, align 8
  %vtable = load ptr, ptr %this1, align 8
  %vfn = getelementptr inbounds ptr, ptr %vtable, i64 5
  %4 = load ptr, ptr %vfn, align 8
  %call = call noundef i64 %4(ptr noundef nonnull align 8 dereferenceable(88) %this1)
  %add = add nsw i64 %3, %call
  br label %cond.end5

cond.false4:                                      ; preds = %cond.end
  br label %cond.end5

cond.end5:                                        ; preds = %cond.false4, %cond.true3
  %cond6 = phi i64 [ %add, %cond.true3 ], [ 0, %cond.false4 ]
  %add7 = add nsw i64 %cond, %cond6
  %5 = load i32, ptr %origin.addr, align 4
  %cmp8 = icmp eq i32 %5, 2
  br i1 %cmp8, label %cond.true9, label %cond.false14

cond.true9:                                       ; preds = %cond.end5
  %6 = load i64, ptr %offset.addr, align 8
  %vtable10 = load ptr, ptr %this1, align 8
  %vfn11 = getelementptr inbounds ptr, ptr %vtable10, i64 11
  %7 = load ptr, ptr %vfn11, align 8
  %call12 = call noundef i64 %7(ptr noundef nonnull align 8 dereferenceable(88) %this1)
  %add13 = add nsw i64 %6, %call12
  br label %cond.end15

cond.false14:                                     ; preds = %cond.end5
  br label %cond.end15

cond.end15:                                       ; preds = %cond.false14, %cond.true9
  %cond16 = phi i64 [ %add13, %cond.true9 ], [ 0, %cond.false14 ]
  %add17 = add nsw i64 %add7, %cond16
  %vtable18 = load ptr, ptr %this1, align 8
  %vfn19 = getelementptr inbounds ptr, ptr %vtable18, i64 6
  %8 = load ptr, ptr %vfn19, align 8
  %call20 = call noundef zeroext i1 %8(ptr noundef nonnull align 8 dereferenceable(88) %this1, i64 noundef %add17)
  ret i1 %call20
}

; Function Attrs: mustprogress nounwind uwtable
define linkonce_odr noundef ptr @_ZNKSt10unique_ptrIN18OpenImageIO_v2_6_010ImageInput4ImplEPFvPS2_EEptEv(ptr noundef nonnull align 8 dereferenceable(16) %this) #4 comdat align 2 {
entry:
  %this.addr = alloca ptr, align 8
  store ptr %this, ptr %this.addr, align 8
  %this1 = load ptr, ptr %this.addr, align 8
  %call = call noundef ptr @_ZNKSt10unique_ptrIN18OpenImageIO_v2_6_010ImageInput4ImplEPFvPS2_EE3getEv(ptr noundef nonnull align 8 dereferenceable(16) %this1) #3
  ret ptr %call
}

; Function Attrs: mustprogress uwtable
define noundef zeroext i1 @_ZN18OpenImageIO_v2_6_010ImageInput6ioseekEli(ptr noundef nonnull align 8 dereferenceable(184) %this, i64 noundef %pos, i32 noundef %origin) #6 align 2 personality ptr @__gxx_personality_v0 {
entry:
  %retval = alloca i1, align 1
  %this.addr = alloca ptr, align 8
  %pos.addr = alloca i64, align 8
  %origin.addr = alloca i32, align 4
  %m_io = alloca ptr, align 8
  %ref.tmp = alloca i64, align 8
  %ref.tmp5 = alloca i64, align 8
  %ref.tmp18 = alloca i64, align 8
  %ref.tmp22 = alloca %"class.std::__cxx11::basic_string", align 8
  %exn.slot = alloca ptr, align 8
  %ehselector.slot = alloca i32, align 4
  store ptr %this, ptr %this.addr, align 8
  store i64 %pos, ptr %pos.addr, align 8
  store i32 %origin, ptr %origin.addr, align 4
  %this1 = load ptr, ptr %this.addr, align 8
  %m_impl = getelementptr inbounds %"class.OpenImageIO_v2_6_0::ImageInput", ptr %this1, i32 0, i32 2
  %call = call noundef ptr @_ZNKSt10unique_ptrIN18OpenImageIO_v2_6_010ImageInput4ImplEPFvPS2_EEptEv(ptr noundef nonnull align 8 dereferenceable(16) %m_impl) #3
  %m_io2 = getelementptr inbounds %"class.OpenImageIO_v2_6_0::ImageInput::Impl", ptr %call, i32 0, i32 3
  store ptr %m_io2, ptr %m_io, align 8
  %0 = load ptr, ptr %m_io, align 8
  %1 = load ptr, ptr %0, align 8
  %tobool = icmp ne ptr %1, null
  br i1 %tobool, label %land.lhs.true, label %if.end

land.lhs.true:                                    ; preds = %entry
  %2 = load ptr, ptr %m_io, align 8
  %3 = load ptr, ptr %2, align 8
  %4 = load i64, ptr %pos.addr, align 8
  %5 = load i32, ptr %origin.addr, align 4
  %call3 = call noundef zeroext i1 @_ZN18OpenImageIO_v2_6_010Filesystem7IOProxy4seekEli(ptr noundef nonnull align 8 dereferenceable(88) %3, i64 noundef %4, i32 noundef %5)
  br i1 %call3, label %if.end, label %if.then

if.then:                                          ; preds = %land.lhs.true
  %6 = load ptr, ptr %m_io, align 8
  %7 = load ptr, ptr %6, align 8
  %vtable = load ptr, ptr %7, align 8
  %vfn = getelementptr inbounds ptr, ptr %vtable, i64 5
  %8 = load ptr, ptr %vfn, align 8
  %call4 = call noundef i64 %8(ptr noundef nonnull align 8 dereferenceable(88) %7)
  store i64 %call4, ptr %ref.tmp, align 8
  %9 = load i32, ptr %origin.addr, align 4
  %cmp = icmp eq i32 %9, 0
  br i1 %cmp, label %cond.true, label %cond.false

cond.true:                                        ; preds = %if.then
  %10 = load i64, ptr %pos.addr, align 8
  br label %cond.end16

cond.false:                                       ; preds = %if.then
  %11 = load i32, ptr %origin.addr, align 4
  %cmp6 = icmp eq i32 %11, 1
  br i1 %cmp6, label %cond.true7, label %cond.false11

cond.true7:                                       ; preds = %cond.false
  %12 = load i64, ptr %pos.addr, align 8
  %13 = load ptr, ptr %m_io, align 8
  %14 = load ptr, ptr %13, align 8
  %vtable8 = load ptr, ptr %14, align 8
  %vfn9 = getelementptr inbounds ptr, ptr %vtable8, i64 5
  %15 = load ptr, ptr %vfn9, align 8
  %call10 = call noundef i64 %15(ptr noundef nonnull align 8 dereferenceable(88) %14)
  %add = add nsw i64 %12, %call10
  br label %cond.end

cond.false11:                                     ; preds = %cond.false
  %16 = load i64, ptr %pos.addr, align 8
  %17 = load ptr, ptr %m_io, align 8
  %18 = load ptr, ptr %17, align 8
  %vtable12 = load ptr, ptr %18, align 8
  %vfn13 = getelementptr inbounds ptr, ptr %vtable12, i64 11
  %19 = load ptr, ptr %vfn13, align 8
  %call14 = call noundef i64 %19(ptr noundef nonnull align 8 dereferenceable(88) %18)
  %add15 = add i64 %16, %call14
  br label %cond.end

cond.end:                                         ; preds = %cond.false11, %cond.true7
  %cond = phi i64 [ %add, %cond.true7 ], [ %add15, %cond.false11 ]
  br label %cond.end16

cond.end16:                                       ; preds = %cond.end, %cond.true
  %cond17 = phi i64 [ %10, %cond.true ], [ %cond, %cond.end ]
  store i64 %cond17, ptr %ref.tmp5, align 8
  %20 = load ptr, ptr %m_io, align 8
  %21 = load ptr, ptr %20, align 8
  %vtable19 = load ptr, ptr %21, align 8
  %vfn20 = getelementptr inbounds ptr, ptr %vtable19, i64 11
  %22 = load ptr, ptr %vfn20, align 8
  %call21 = call noundef i64 %22(ptr noundef nonnull align 8 dereferenceable(88) %21)
  store i64 %call21, ptr %ref.tmp18, align 8
  %23 = load ptr, ptr %m_io, align 8
  %24 = load ptr, ptr %23, align 8
  call void @_ZNK18OpenImageIO_v2_6_010Filesystem7IOProxy5errorB5cxx11Ev(ptr sret(%"class.std::__cxx11::basic_string") align 8 %ref.tmp22, ptr noundef nonnull align 8 dereferenceable(88) %24)
  invoke void @_ZNK18OpenImageIO_v2_6_010ImageInput8errorfmtIJlmmNSt7__cxx1112basic_stringIcSt11char_traitsIcESaIcEEEEEEvPKcDpRKT_(ptr noundef nonnull align 8 dereferenceable(184) %this1, ptr noundef @.str.13, ptr noundef nonnull align 8 dereferenceable(8) %ref.tmp, ptr noundef nonnull align 8 dereferenceable(8) %ref.tmp5, ptr noundef nonnull align 8 dereferenceable(8) %ref.tmp18, ptr noundef nonnull align 8 dereferenceable(32) %ref.tmp22)
          to label %invoke.cont unwind label %lpad

invoke.cont:                                      ; preds = %cond.end16
  call void @_ZNSt7__cxx1112basic_stringIcSt11char_traitsIcESaIcEED1Ev(ptr noundef nonnull align 8 dereferenceable(32) %ref.tmp22) #3
  store i1 false, ptr %retval, align 1
  br label %return

lpad:                                             ; preds = %cond.end16
  %25 = landingpad { ptr, i32 }
          cleanup
  %26 = extractvalue { ptr, i32 } %25, 0
  store ptr %26, ptr %exn.slot, align 8
  %27 = extractvalue { ptr, i32 } %25, 1
  store i32 %27, ptr %ehselector.slot, align 4
  call void @_ZNSt7__cxx1112basic_stringIcSt11char_traitsIcESaIcEED1Ev(ptr noundef nonnull align 8 dereferenceable(32) %ref.tmp22) #3
  br label %eh.resume

if.end:                                           ; preds = %land.lhs.true, %entry
  store i1 true, ptr %retval, align 1
  br label %return

return:                                           ; preds = %if.end, %invoke.cont
  %28 = load i1, ptr %retval, align 1
  ret i1 %28

eh.resume:                                        ; preds = %lpad
  %exn = load ptr, ptr %exn.slot, align 8
  %sel = load i32, ptr %ehselector.slot, align 4
  %lpad.val = insertvalue { ptr, i32 } poison, ptr %exn, 0
  %lpad.val23 = insertvalue { ptr, i32 } %lpad.val, i32 %sel, 1
  resume { ptr, i32 } %lpad.val23
}