; Function Attrs: mustprogress uwtable
define noundef zeroext i1 @_ZN18OpenImageIO_v2_6_010ImageInput6ioseekEli(ptr noundef nonnull align 8 dereferenceable(184) %this, i64 noundef %pos, i32 noundef %origin) local_unnamed_addr #5 align 2 personality ptr @__gxx_personality_v0 {
entry:
  %ref.tmp = alloca i64, align 8
  %ref.tmp5 = alloca i64, align 8
  %ref.tmp18 = alloca i64, align 8
  %ref.tmp22 = alloca %"class.std::__cxx11::basic_string", align 8
  %add.ptr.i.i.i.i.i.i = getelementptr inbounds i8, ptr %this, i64 176
  %0 = load ptr, ptr %add.ptr.i.i.i.i.i.i, align 8
  %m_io2 = getelementptr inbounds i8, ptr %0, i64 56
  %1 = load ptr, ptr %m_io2, align 8
  %tobool.not = icmp eq ptr %1, null
  br i1 %tobool.not, label %return, label %land.lhs.true

land.lhs.true:                                    ; preds = %entry
  switch i32 %origin, label %_ZN18OpenImageIO_v2_6_010Filesystem7IOProxy4seekEli.exit [
    i32 1, label %cond.end5.thread.i
    i32 2, label %cond.true9.i
  ]

cond.end5.thread.i:                               ; preds = %land.lhs.true
  %vtable.i = load ptr, ptr %1, align 8
  %vfn.i = getelementptr inbounds i8, ptr %vtable.i, i64 40
  %2 = load ptr, ptr %vfn.i, align 8
  %call.i = tail call noundef i64 %2(ptr noundef nonnull align 8 dereferenceable(88) %1)
  %add.i = add nsw i64 %call.i, %pos
  br label %_ZN18OpenImageIO_v2_6_010Filesystem7IOProxy4seekEli.exit

cond.true9.i:                                     ; preds = %land.lhs.true
  %vtable10.i = load ptr, ptr %1, align 8
  %vfn11.i = getelementptr inbounds i8, ptr %vtable10.i, i64 88
  %3 = load ptr, ptr %vfn11.i, align 8
  %call12.i = tail call noundef i64 %3(ptr noundef nonnull align 8 dereferenceable(88) %1)
  %add13.i = add nsw i64 %call12.i, %pos
  br label %_ZN18OpenImageIO_v2_6_010Filesystem7IOProxy4seekEli.exit

_ZN18OpenImageIO_v2_6_010Filesystem7IOProxy4seekEli.exit: ; preds = %land.lhs.true, %cond.end5.thread.i, %cond.true9.i
  %cond67.i = phi i64 [ 0, %cond.true9.i ], [ %add.i, %cond.end5.thread.i ], [ 0, %land.lhs.true ]
  %cond16.i = phi i64 [ %add13.i, %cond.true9.i ], [ 0, %cond.end5.thread.i ], [ 0, %land.lhs.true ]
  %cmp.i = icmp eq i32 %origin, 0
  %cond.i = select i1 %cmp.i, i64 %pos, i64 0
  %add7.i = add nsw i64 %cond67.i, %cond.i
  %add17.i = add nsw i64 %add7.i, %cond16.i
  %vtable18.i = load ptr, ptr %1, align 8
  %vfn19.i = getelementptr inbounds i8, ptr %vtable18.i, i64 48
  %4 = load ptr, ptr %vfn19.i, align 8
  %call20.i = tail call noundef zeroext i1 %4(ptr noundef nonnull align 8 dereferenceable(88) %1, i64 noundef %add17.i)
  br i1 %call20.i, label %return, label %if.then

if.then:                                          ; preds = %_ZN18OpenImageIO_v2_6_010Filesystem7IOProxy4seekEli.exit
  %5 = load ptr, ptr %m_io2, align 8
  %vtable = load ptr, ptr %5, align 8
  %vfn = getelementptr inbounds i8, ptr %vtable, i64 40
  %6 = load ptr, ptr %vfn, align 8
  %call4 = tail call noundef i64 %6(ptr noundef nonnull align 8 dereferenceable(88) %5)
  store i64 %call4, ptr %ref.tmp, align 8
  switch i32 %origin, label %cond.false11 [
    i32 0, label %cond.end16
    i32 1, label %cond.end16.sink.split
  ]

cond.false11:                                     ; preds = %if.then
  br label %cond.end16.sink.split

cond.end16.sink.split:                            ; preds = %if.then, %cond.false11
  %.sink13 = phi i64 [ 88, %cond.false11 ], [ 40, %if.then ]
  %7 = load ptr, ptr %m_io2, align 8
  %vtable8 = load ptr, ptr %7, align 8
  %vfn9 = getelementptr inbounds i8, ptr %vtable8, i64 %.sink13
  %8 = load ptr, ptr %vfn9, align 8
  %call10 = tail call noundef i64 %8(ptr noundef nonnull align 8 dereferenceable(88) %7)
  %add = add i64 %call10, %pos
  br label %cond.end16

cond.end16:                                       ; preds = %cond.end16.sink.split, %if.then
  %cond17 = phi i64 [ %pos, %if.then ], [ %add, %cond.end16.sink.split ]
  store i64 %cond17, ptr %ref.tmp5, align 8
  %9 = load ptr, ptr %m_io2, align 8
  %vtable19 = load ptr, ptr %9, align 8
  %vfn20 = getelementptr inbounds i8, ptr %vtable19, i64 88
  %10 = load ptr, ptr %vfn20, align 8
  %call21 = tail call noundef i64 %10(ptr noundef nonnull align 8 dereferenceable(88) %9)
  store i64 %call21, ptr %ref.tmp18, align 8
  %11 = load ptr, ptr %m_io2, align 8
  call void @_ZNK18OpenImageIO_v2_6_010Filesystem7IOProxy5errorB5cxx11Ev(ptr nonnull sret(%"class.std::__cxx11::basic_string") align 8 %ref.tmp22, ptr noundef nonnull align 8 dereferenceable(88) %11)
  invoke void @_ZNK18OpenImageIO_v2_6_010ImageInput8errorfmtIJlmmNSt7__cxx1112basic_stringIcSt11char_traitsIcESaIcEEEEEEvPKcDpRKT_(ptr noundef nonnull align 8 dereferenceable(184) %this, ptr noundef nonnull @.str.13, ptr noundef nonnull align 8 dereferenceable(8) %ref.tmp, ptr noundef nonnull align 8 dereferenceable(8) %ref.tmp5, ptr noundef nonnull align 8 dereferenceable(8) %ref.tmp18, ptr noundef nonnull align 8 dereferenceable(32) %ref.tmp22)
          to label %invoke.cont unwind label %lpad

invoke.cont:                                      ; preds = %cond.end16
  call void @_ZNSt7__cxx1112basic_stringIcSt11char_traitsIcESaIcEED1Ev(ptr noundef nonnull align 8 dereferenceable(32) %ref.tmp22) #26
  br label %return

lpad:                                             ; preds = %cond.end16
  %12 = landingpad { ptr, i32 }
          cleanup
  call void @_ZNSt7__cxx1112basic_stringIcSt11char_traitsIcESaIcEED1Ev(ptr noundef nonnull align 8 dereferenceable(32) %ref.tmp22) #26
  resume { ptr, i32 } %12

return:                                           ; preds = %entry, %_ZN18OpenImageIO_v2_6_010Filesystem7IOProxy4seekEli.exit, %invoke.cont
  %retval.0 = phi i1 [ false, %invoke.cont ], [ true, %_ZN18OpenImageIO_v2_6_010Filesystem7IOProxy4seekEli.exit ], [ true, %entry ]
  ret i1 %retval.0
}